target datalayout = "e-m:e-p270:32:32-p271:32:32-p272:64:64-i64:64-i128:128-f80:128-n8:16:32:64-S128"
target triple = "x86_64-pc-linux-gnu"

%struct.commit = type { %struct.object, i64, ptr, ptr, i32 }
%struct.object = type { i32, %struct.object_id }
%struct.object_id = type { [32 x i8], i32 }
%struct.commit_list = type { ptr, ptr }
%struct.patch_ids = type { %struct.hashmap, %struct.diff_options }
%struct.hashmap = type { ptr, ptr, ptr, i32, i32, i32, i32, i8 }
%struct.diff_options = type { ptr, ptr, i32, i32, ptr, i32, ptr, i64, i64, ptr, ptr, ptr, ptr, %struct.diff_flags, i32, i32, i32, i32, i32, i32, i32, i32, i32, i32, i32, i32, i32, i32, i32, i32, i32, i32, i32, i32, i32, i32, ptr, i32, ptr, i32, i32, ptr, i64, i64, i32, i32, i32, i32, ptr, i32, i32, ptr, i32, i32, ptr, ptr, i32, [3 x i8], %struct.pathspec, ptr, ptr, ptr, ptr, ptr, ptr, ptr, ptr, i32, ptr, i32, i32, ptr, ptr, i32 }
%struct.diff_flags = type { i32, i32, i32, i32, i32, i32, i32, i32, i32, i32, i32, i32, i32, i32, i32, i32, i32, i32, i32, i32, i32, i32, i32, i32, i32, i32, i32, i32, i32, i32, i32, i32, i32, i32, i32 }
%struct.pathspec = type { i32, i8, i32, i32, ptr }
%struct.patch_id = type { %struct.hashmap_entry, %struct.object_id, ptr }
%struct.hashmap_entry = type { ptr, i32 }

@.str = private unnamed_addr constant [1 x i8] zeroinitializer, align 1

; Function Attrs: inlinehint nounwind uwtable
define internal void @hashmap_entry_init(ptr noundef %0, i32 noundef %1) #4 {
  %3 = alloca ptr, align 8
  %4 = alloca i32, align 4
  store ptr %0, ptr %3, align 8, !tbaa !46
  store i32 %1, ptr %4, align 4, !tbaa !13
  %5 = load i32, ptr %4, align 4, !tbaa !13
  %6 = load ptr, ptr %3, align 8, !tbaa !46
  %7 = getelementptr inbounds nuw %struct.hashmap_entry, ptr %6, i32 0, i32 1
  store i32 %5, ptr %7, align 8, !tbaa !54
  %8 = load ptr, ptr %3, align 8, !tbaa !46
  %9 = getelementptr inbounds nuw %struct.hashmap_entry, ptr %8, i32 0, i32 0
  store ptr null, ptr %9, align 8, !tbaa !55
  ret void
}

; Function Attrs: inlinehint nounwind uwtable
define internal i32 @oidhash(ptr noundef %0) #4 {
  %2 = alloca ptr, align 8
  %3 = alloca i32, align 4
  store ptr %0, ptr %2, align 8, !tbaa !11
  call void @llvm.lifetime.start.p0(i64 4, ptr %3) #8
  %4 = load ptr, ptr %2, align 8, !tbaa !11
  %5 = getelementptr inbounds nuw %struct.object_id, ptr %4, i32 0, i32 0
  %6 = getelementptr inbounds [32 x i8], ptr %5, i64 0, i64 0
  call void @llvm.memcpy.p0.p0.i64(ptr align 4 %3, ptr align 4 %6, i64 4, i1 false)
  %7 = load i32, ptr %3, align 4, !tbaa !13
  call void @llvm.lifetime.end.p0(i64 4, ptr %3) #8
  ret i32 %7
}

; Function Attrs: nounwind uwtable
define dso_local i32 @commit_patch_id(ptr noundef %0, ptr noundef %1, ptr noundef %2, i32 noundef %3) #0 {
  %5 = alloca i32, align 4
  %6 = alloca ptr, align 8
  %7 = alloca ptr, align 8
  %8 = alloca ptr, align 8
  %9 = alloca i32, align 4
  store ptr %0, ptr %6, align 8, !tbaa !4
  store ptr %1, ptr %7, align 8, !tbaa !9
  store ptr %2, ptr %8, align 8, !tbaa !11
  store i32 %3, ptr %9, align 4, !tbaa !13
  %10 = load ptr, ptr %6, align 8, !tbaa !4
  %11 = call i32 @patch_id_defined(ptr noundef %10)
  %12 = icmp ne i32 %11, 0
  br i1 %12, label %14, label %13

13:                                               ; preds = %4
  store i32 -1, ptr %5, align 4
  br label %42

14:                                               ; preds = %4
  %15 = load ptr, ptr %6, align 8, !tbaa !4
  %16 = getelementptr inbounds nuw %struct.commit, ptr %15, i32 0, i32 2
  %17 = load ptr, ptr %16, align 8, !tbaa !15
  %18 = icmp ne ptr %17, null
  br i1 %18, label %19, label %31

19:                                               ; preds = %14
  %20 = load ptr, ptr %6, align 8, !tbaa !4
  %21 = getelementptr inbounds nuw %struct.commit, ptr %20, i32 0, i32 2
  %22 = load ptr, ptr %21, align 8, !tbaa !15
  %23 = getelementptr inbounds nuw %struct.commit_list, ptr %22, i32 0, i32 0
  %24 = load ptr, ptr %23, align 8, !tbaa !22
  %25 = getelementptr inbounds nuw %struct.commit, ptr %24, i32 0, i32 0
  %26 = getelementptr inbounds nuw %struct.object, ptr %25, i32 0, i32 1
  %27 = load ptr, ptr %6, align 8, !tbaa !4
  %28 = getelementptr inbounds nuw %struct.commit, ptr %27, i32 0, i32 0
  %29 = getelementptr inbounds nuw %struct.object, ptr %28, i32 0, i32 1
  %30 = load ptr, ptr %7, align 8, !tbaa !9
  call void @diff_tree_oid(ptr noundef %26, ptr noundef %29, ptr noundef @.str, ptr noundef %30)
  br label %36

31:                                               ; preds = %14
  %32 = load ptr, ptr %6, align 8, !tbaa !4
  %33 = getelementptr inbounds nuw %struct.commit, ptr %32, i32 0, i32 0
  %34 = getelementptr inbounds nuw %struct.object, ptr %33, i32 0, i32 1
  %35 = load ptr, ptr %7, align 8, !tbaa !9
  call void @diff_root_tree_oid(ptr noundef %34, ptr noundef @.str, ptr noundef %35)
  br label %36

36:                                               ; preds = %31, %19
  %37 = load ptr, ptr %7, align 8, !tbaa !9
  call void @diffcore_std(ptr noundef %37)
  %38 = load ptr, ptr %7, align 8, !tbaa !9
  %39 = load ptr, ptr %8, align 8, !tbaa !11
  %40 = load i32, ptr %9, align 4, !tbaa !13
  %41 = call i32 @diff_flush_patch_id(ptr noundef %38, ptr noundef %39, i32 noundef %40)
  store i32 %41, ptr %5, align 4
  br label %42

42:                                               ; preds = %36, %13
  %43 = load i32, ptr %5, align 4
  ret i32 %43
}

; Function Attrs: nounwind uwtable
define internal i32 @init_patch_id_entry(ptr noundef %0, ptr noundef %1, ptr noundef %2) #0 {
  %4 = alloca i32, align 4
  %5 = alloca ptr, align 8
  %6 = alloca ptr, align 8
  %7 = alloca ptr, align 8
  %8 = alloca %struct.object_id, align 4
  %9 = alloca i32, align 4
  store ptr %0, ptr %5, align 8, !tbaa !48
  store ptr %1, ptr %6, align 8, !tbaa !4
  store ptr %2, ptr %7, align 8, !tbaa !27
  call void @llvm.lifetime.start.p0(i64 36, ptr %8) #8
  %10 = load ptr, ptr %6, align 8, !tbaa !4
  %11 = load ptr, ptr %5, align 8, !tbaa !48
  %12 = getelementptr inbounds nuw %struct.patch_id, ptr %11, i32 0, i32 2
  store ptr %10, ptr %12, align 8, !tbaa !50
  %13 = load ptr, ptr %6, align 8, !tbaa !4
  %14 = load ptr, ptr %7, align 8, !tbaa !27
  %15 = getelementptr inbounds nuw %struct.patch_ids, ptr %14, i32 0, i32 1
  %16 = call i32 @commit_patch_id(ptr noundef %13, ptr noundef %15, ptr noundef %8, i32 noundef 1)
  %17 = icmp ne i32 %16, 0
  br i1 %17, label %18, label %19

18:                                               ; preds = %3
  store i32 -1, ptr %4, align 4
  store i32 1, ptr %9, align 4
  br label %23

19:                                               ; preds = %3
  %20 = load ptr, ptr %5, align 8, !tbaa !48
  %21 = getelementptr inbounds nuw %struct.patch_id, ptr %20, i32 0, i32 0
  %22 = call i32 @oidhash(ptr noundef %8)
  call void @hashmap_entry_init(ptr noundef %21, i32 noundef %22)
  store i32 0, ptr %4, align 4
  store i32 1, ptr %9, align 4
  br label %23

23:                                               ; preds = %19, %18
  call void @llvm.lifetime.end.p0(i64 36, ptr %8) #8
  %24 = load i32, ptr %4, align 4
  ret i32 %24
}

; Function Attrs: nounwind uwtable
define internal i32 @patch_id_defined(ptr noundef %0) #0 {
  %2 = alloca ptr, align 8
  store ptr %0, ptr %2, align 8, !tbaa !4
  %3 = load ptr, ptr %2, align 8, !tbaa !4
  %4 = getelementptr inbounds nuw %struct.commit, ptr %3, i32 0, i32 2
  %5 = load ptr, ptr %4, align 8, !tbaa !15
  %6 = icmp ne ptr %5, null
  br i1 %6, label %7, label %15

7:                                                ; preds = %1
  %8 = load ptr, ptr %2, align 8, !tbaa !4
  %9 = getelementptr inbounds nuw %struct.commit, ptr %8, i32 0, i32 2
  %10 = load ptr, ptr %9, align 8, !tbaa !15
  %11 = getelementptr inbounds nuw %struct.commit_list, ptr %10, i32 0, i32 1
  %12 = load ptr, ptr %11, align 8, !tbaa !24
  %13 = icmp ne ptr %12, null
  %14 = xor i1 %13, true
  br label %15

15:                                               ; preds = %7, %1
  %16 = phi i1 [ true, %1 ], [ %14, %7 ]
  %17 = zext i1 %16 to i32
  ret i32 %17
}

; Function Attrs: nounwind uwtable
define dso_local ptr @add_commit_patch_id(ptr noundef %0, ptr noundef %1) #0 {
  %3 = alloca ptr, align 8
  %4 = alloca ptr, align 8
  %5 = alloca ptr, align 8
  %6 = alloca ptr, align 8
  %7 = alloca i32, align 4
  store ptr %0, ptr %4, align 8, !tbaa !4
  store ptr %1, ptr %5, align 8, !tbaa !27
  call void @llvm.lifetime.start.p0(i64 8, ptr %6) #8
  %8 = load ptr, ptr %4, align 8, !tbaa !4
  %9 = call i32 @patch_id_defined(ptr noundef %8)
  %10 = icmp ne i32 %9, 0
  br i1 %10, label %12, label %11

11:                                               ; preds = %2
  store ptr null, ptr %3, align 8
  store i32 1, ptr %7, align 4
  br label %27

12:                                               ; preds = %2
  %13 = call ptr @xcalloc(i64 noundef 1, i64 noundef 64)
  store ptr %13, ptr %6, align 8, !tbaa !48
  %14 = load ptr, ptr %6, align 8, !tbaa !48
  %15 = load ptr, ptr %4, align 8, !tbaa !4
  %16 = load ptr, ptr %5, align 8, !tbaa !27
  %17 = call i32 @init_patch_id_entry(ptr noundef %14, ptr noundef %15, ptr noundef %16)
  %18 = icmp ne i32 %17, 0
  br i1 %18, label %19, label %21

19:                                               ; preds = %12
  %20 = load ptr, ptr %6, align 8, !tbaa !48
  call void @free(ptr noundef %20) #8
  store ptr null, ptr %3, align 8
  store i32 1, ptr %7, align 4
  br label %27

21:                                               ; preds = %12
  %22 = load ptr, ptr %5, align 8, !tbaa !27
  %23 = getelementptr inbounds nuw %struct.patch_ids, ptr %22, i32 0, i32 0
  %24 = load ptr, ptr %6, align 8, !tbaa !48
  %25 = getelementptr inbounds nuw %struct.patch_id, ptr %24, i32 0, i32 0
  call void @hashmap_add(ptr noundef %23, ptr noundef %25)
  %26 = load ptr, ptr %6, align 8, !tbaa !48
  store ptr %26, ptr %3, align 8
  store i32 1, ptr %7, align 4
  br label %27

27:                                               ; preds = %21, %19, %11
  call void @llvm.lifetime.end.p0(i64 8, ptr %6) #8
  %28 = load ptr, ptr %3, align 8
  ret ptr %28
}