; Function Attrs: nounwind uwtable
define dso_local ptr @add_commit_patch_id(ptr noundef %0, ptr noundef %1) local_unnamed_addr #0 {
  %3 = alloca %struct.object_id, align 4
  %4 = getelementptr i8, ptr %0, i64 48
  %.val = load ptr, ptr %4, align 8, !tbaa !4
  %.not.i = icmp eq ptr %.val, null
  br i1 %.not.i, label %patch_id_defined.exit.thread, label %patch_id_defined.exit

patch_id_defined.exit:                            ; preds = %2
  %5 = getelementptr inbounds nuw i8, ptr %.val, i64 8
  %6 = load ptr, ptr %5, align 8, !tbaa !15
  %.not2.i.not = icmp eq ptr %6, null
  br i1 %.not2.i.not, label %patch_id_defined.exit.thread, label %22

patch_id_defined.exit.thread:                     ; preds = %2, %patch_id_defined.exit
  %7 = tail call ptr @xcalloc(i64 noundef 1, i64 noundef 64) #6
  call void @llvm.lifetime.start.p0(i64 36, ptr nonnull %3) #6
  %8 = getelementptr inbounds nuw i8, ptr %7, i64 56
  store ptr %0, ptr %8, align 8, !tbaa !36
  %9 = getelementptr inbounds nuw i8, ptr %1, i64 48
  %.val.i.i = load ptr, ptr %4, align 8, !tbaa !4
  %.not.i.i.i = icmp eq ptr %.val.i.i, null
  br i1 %.not.i.i.i, label %16, label %patch_id_defined.exit.i.i

patch_id_defined.exit.i.i:                        ; preds = %patch_id_defined.exit.thread
  %10 = getelementptr inbounds nuw i8, ptr %.val.i.i, i64 8
  %11 = load ptr, ptr %10, align 8, !tbaa !15
  %.not2.i.not.i.i = icmp eq ptr %11, null
  br i1 %.not2.i.not.i.i, label %12, label %19

12:                                               ; preds = %patch_id_defined.exit.i.i
  %13 = load ptr, ptr %.val.i.i, align 8, !tbaa !18
  %14 = getelementptr inbounds nuw i8, ptr %13, i64 4
  %15 = getelementptr inbounds nuw i8, ptr %0, i64 4
  tail call void @diff_tree_oid(ptr noundef nonnull %14, ptr noundef nonnull %15, ptr noundef nonnull @.str, ptr noundef nonnull %9) #6
  br label %commit_patch_id.exit.i

16:                                               ; preds = %patch_id_defined.exit.thread
  %17 = getelementptr inbounds nuw i8, ptr %0, i64 4
  tail call void @diff_root_tree_oid(ptr noundef nonnull %17, ptr noundef nonnull @.str, ptr noundef nonnull %9) #6
  br label %commit_patch_id.exit.i

commit_patch_id.exit.i:                           ; preds = %16, %12
  tail call void @diffcore_std(ptr noundef nonnull %9) #6
  %18 = call i32 @diff_flush_patch_id(ptr noundef nonnull %9, ptr noundef nonnull %3, i32 noundef 1) #6
  %.not.i10 = icmp eq i32 %18, 0
  br i1 %.not.i10, label %20, label %19

19:                                               ; preds = %commit_patch_id.exit.i, %patch_id_defined.exit.i.i
  call void @llvm.lifetime.end.p0(i64 36, ptr nonnull %3) #6
  call void @free(ptr noundef nonnull %7) #6
  br label %22

20:                                               ; preds = %commit_patch_id.exit.i
  %.val.i = load i32, ptr %3, align 4
  %21 = getelementptr inbounds nuw i8, ptr %7, i64 8
  store i32 %.val.i, ptr %21, align 8, !tbaa !40
  store ptr null, ptr %7, align 8, !tbaa !41
  call void @llvm.lifetime.end.p0(i64 36, ptr nonnull %3) #6
  call void @hashmap_add(ptr noundef nonnull %1, ptr noundef nonnull %7) #6
  br label %22

22:                                               ; preds = %patch_id_defined.exit, %20, %19
  %.0 = phi ptr [ null, %19 ], [ %7, %20 ], [ null, %patch_id_defined.exit ]
  ret ptr %.0
}